target datalayout = "e-m:e-p270:32:32-p271:32:32-p272:64:64-i64:64-i128:128-f80:128-n8:16:32:64-S128"
target triple = "x86_64-unknown-linux-gnu"

%struct.code = type { i8, i8, i16 }
%struct.z_stream_s = type { ptr, i32, i64, ptr, i32, i64, ptr, ptr, ptr, ptr, ptr, i32, i64, i64, i32 }
%struct.inflate_state = type { i32, i32, i32, i32, i32, i32, i64, i64, ptr, i32, i32, i32, i32, ptr, i64, i32, i32, i32, i32, ptr, ptr, i32, i32, i32, i32, i32, i32, ptr, [320 x i16], [288 x i16], [1444 x %struct.code], i32, i32, i32 }

@.str = private unnamed_addr constant [6 x i8] c"1.2.8\00", align 1

; Function Attrs: nounwind uwtable
define dso_local i32 @MOZ_Z_inflateBackInit_(ptr noundef %strm, i32 noundef %windowBits, ptr noundef %window, ptr noundef %version, i32 noundef %stream_size) #0 {
entry:
  %retval = alloca i32, align 4
  %strm.addr = alloca ptr, align 8
  %windowBits.addr = alloca i32, align 4
  %window.addr = alloca ptr, align 8
  %version.addr = alloca ptr, align 8
  %stream_size.addr = alloca i32, align 4
  %state = alloca ptr, align 8
  store ptr %strm, ptr %strm.addr, align 8
  store i32 %windowBits, ptr %windowBits.addr, align 4
  store ptr %window, ptr %window.addr, align 8
  store ptr %version, ptr %version.addr, align 8
  store i32 %stream_size, ptr %stream_size.addr, align 4
  %0 = load ptr, ptr %version.addr, align 8
  %cmp = icmp eq ptr %0, null
  br i1 %cmp, label %if.then, label %lor.lhs.false

lor.lhs.false:                                    ; preds = %entry
  %1 = load ptr, ptr %version.addr, align 8
  %arrayidx = getelementptr inbounds i8, ptr %1, i64 0
  %2 = load i8, ptr %arrayidx, align 1
  %conv = sext i8 %2 to i32
  %3 = load i8, ptr @.str, align 1
  %conv1 = sext i8 %3 to i32
  %cmp2 = icmp ne i32 %conv, %conv1
  br i1 %cmp2, label %if.then, label %lor.lhs.false4

lor.lhs.false4:                                   ; preds = %lor.lhs.false
  %4 = load i32, ptr %stream_size.addr, align 4
  %cmp5 = icmp ne i32 %4, 120
  br i1 %cmp5, label %if.then, label %if.end

if.then:                                          ; preds = %lor.lhs.false4, %lor.lhs.false, %entry
  store i32 -6, ptr %retval, align 4
  br label %return

if.end:                                           ; preds = %lor.lhs.false4
  %5 = load ptr, ptr %strm.addr, align 8
  %cmp7 = icmp eq ptr %5, null
  br i1 %cmp7, label %if.then18, label %lor.lhs.false9

lor.lhs.false9:                                   ; preds = %if.end
  %6 = load ptr, ptr %window.addr, align 8
  %cmp10 = icmp eq ptr %6, null
  br i1 %cmp10, label %if.then18, label %lor.lhs.false12

lor.lhs.false12:                                  ; preds = %lor.lhs.false9
  %7 = load i32, ptr %windowBits.addr, align 4
  %cmp13 = icmp slt i32 %7, 8
  br i1 %cmp13, label %if.then18, label %lor.lhs.false15

lor.lhs.false15:                                  ; preds = %lor.lhs.false12
  %8 = load i32, ptr %windowBits.addr, align 4
  %cmp16 = icmp sgt i32 %8, 15
  br i1 %cmp16, label %if.then18, label %if.end19

if.then18:                                        ; preds = %lor.lhs.false15, %lor.lhs.false12, %lor.lhs.false9, %if.end
  store i32 -2, ptr %retval, align 4
  br label %return

if.end19:                                         ; preds = %lor.lhs.false15
  %9 = load ptr, ptr %strm.addr, align 8
  %msg = getelementptr inbounds %struct.z_stream_s, ptr %9, i32 0, i32 6
  store ptr null, ptr %msg, align 8
  %10 = load ptr, ptr %strm.addr, align 8
  %zalloc = getelementptr inbounds %struct.z_stream_s, ptr %10, i32 0, i32 8
  %11 = load ptr, ptr %zalloc, align 8
  %cmp20 = icmp eq ptr %11, null
  br i1 %cmp20, label %if.then22, label %if.end24

if.then22:                                        ; preds = %if.end19
  %12 = load ptr, ptr %strm.addr, align 8
  %zalloc23 = getelementptr inbounds %struct.z_stream_s, ptr %12, i32 0, i32 8
  store ptr @MOZ_Z_zcalloc, ptr %zalloc23, align 8
  %13 = load ptr, ptr %strm.addr, align 8
  %opaque = getelementptr inbounds %struct.z_stream_s, ptr %13, i32 0, i32 10
  store ptr null, ptr %opaque, align 8
  br label %if.end24

if.end24:                                         ; preds = %if.then22, %if.end19
  %14 = load ptr, ptr %strm.addr, align 8
  %zfree = getelementptr inbounds %struct.z_stream_s, ptr %14, i32 0, i32 9
  %15 = load ptr, ptr %zfree, align 8
  %cmp25 = icmp eq ptr %15, null
  br i1 %cmp25, label %if.then27, label %if.end29

if.then27:                                        ; preds = %if.end24
  %16 = load ptr, ptr %strm.addr, align 8
  %zfree28 = getelementptr inbounds %struct.z_stream_s, ptr %16, i32 0, i32 9
  store ptr @MOZ_Z_zcfree, ptr %zfree28, align 8
  br label %if.end29

if.end29:                                         ; preds = %if.then27, %if.end24
  %17 = load ptr, ptr %strm.addr, align 8
  %zalloc30 = getelementptr inbounds %struct.z_stream_s, ptr %17, i32 0, i32 8
  %18 = load ptr, ptr %zalloc30, align 8
  %19 = load ptr, ptr %strm.addr, align 8
  %opaque31 = getelementptr inbounds %struct.z_stream_s, ptr %19, i32 0, i32 10
  %20 = load ptr, ptr %opaque31, align 8
  %call = call ptr %18(ptr noundef %20, i32 noundef 1, i32 noundef 7152)
  store ptr %call, ptr %state, align 8
  %21 = load ptr, ptr %state, align 8
  %cmp32 = icmp eq ptr %21, null
  br i1 %cmp32, label %if.then34, label %if.end35

if.then34:                                        ; preds = %if.end29
  store i32 -4, ptr %retval, align 4
  br label %return

if.end35:                                         ; preds = %if.end29
  %22 = load ptr, ptr %state, align 8
  %23 = load ptr, ptr %strm.addr, align 8
  %state36 = getelementptr inbounds %struct.z_stream_s, ptr %23, i32 0, i32 7
  store ptr %22, ptr %state36, align 8
  %24 = load ptr, ptr %state, align 8
  %dmax = getelementptr inbounds %struct.inflate_state, ptr %24, i32 0, i32 5
  store i32 32768, ptr %dmax, align 4
  %25 = load i32, ptr %windowBits.addr, align 4
  %26 = load ptr, ptr %state, align 8
  %wbits = getelementptr inbounds %struct.inflate_state, ptr %26, i32 0, i32 9
  store i32 %25, ptr %wbits, align 8
  %27 = load i32, ptr %windowBits.addr, align 4
  %shl = shl i32 1, %27
  %28 = load ptr, ptr %state, align 8
  %wsize = getelementptr inbounds %struct.inflate_state, ptr %28, i32 0, i32 10
  store i32 %shl, ptr %wsize, align 4
  %29 = load ptr, ptr %window.addr, align 8
  %30 = load ptr, ptr %state, align 8
  %window37 = getelementptr inbounds %struct.inflate_state, ptr %30, i32 0, i32 13
  store ptr %29, ptr %window37, align 8
  %31 = load ptr, ptr %state, align 8
  %wnext = getelementptr inbounds %struct.inflate_state, ptr %31, i32 0, i32 12
  store i32 0, ptr %wnext, align 4
  %32 = load ptr, ptr %state, align 8
  %whave = getelementptr inbounds %struct.inflate_state, ptr %32, i32 0, i32 11
  store i32 0, ptr %whave, align 8
  store i32 0, ptr %retval, align 4
  br label %return

return:                                           ; preds = %if.end35, %if.then34, %if.then18, %if.then
  %33 = load i32, ptr %retval, align 4
  ret i32 %33
}