; Function Attrs: nounwind uwtable
define dso_local range(i32 -6, 1) i32 @MOZ_Z_inflateBackInit_(ptr noundef %strm, i32 noundef %windowBits, ptr noundef %window, ptr noundef readonly %version, i32 noundef %stream_size) local_unnamed_addr #0 {
entry:
  %cmp = icmp eq ptr %version, null
  br i1 %cmp, label %return, label %lor.lhs.false

lor.lhs.false:                                    ; preds = %entry
  %0 = load i8, ptr %version, align 1
  %cmp2 = icmp ne i8 %0, 49
  %cmp5 = icmp ne i32 %stream_size, 120
  %or.cond = or i1 %cmp5, %cmp2
  br i1 %or.cond, label %return, label %if.end

if.end:                                           ; preds = %lor.lhs.false
  %cmp7 = icmp eq ptr %strm, null
  %cmp10 = icmp eq ptr %window, null
  %or.cond1 = or i1 %cmp7, %cmp10
  %1 = add i32 %windowBits, -16
  %2 = icmp ult i32 %1, -8
  %or.cond3 = or i1 %2, %or.cond1
  br i1 %or.cond3, label %return, label %if.end19

if.end19:                                         ; preds = %if.end
  %msg = getelementptr inbounds nuw i8, ptr %strm, i64 48
  store ptr null, ptr %msg, align 8
  %zalloc = getelementptr inbounds nuw i8, ptr %strm, i64 64
  %3 = load ptr, ptr %zalloc, align 8
  %cmp20 = icmp eq ptr %3, null
  br i1 %cmp20, label %if.then22, label %if.end24

if.then22:                                        ; preds = %if.end19
  store ptr @MOZ_Z_zcalloc, ptr %zalloc, align 8
  %opaque = getelementptr inbounds nuw i8, ptr %strm, i64 80
  store ptr null, ptr %opaque, align 8
  br label %if.end24

if.end24:                                         ; preds = %if.then22, %if.end19
  %4 = phi ptr [ @MOZ_Z_zcalloc, %if.then22 ], [ %3, %if.end19 ]
  %zfree = getelementptr inbounds nuw i8, ptr %strm, i64 72
  %5 = load ptr, ptr %zfree, align 8
  %cmp25 = icmp eq ptr %5, null
  br i1 %cmp25, label %if.then27, label %if.end29

if.then27:                                        ; preds = %if.end24
  store ptr @MOZ_Z_zcfree, ptr %zfree, align 8
  br label %if.end29

if.end29:                                         ; preds = %if.then27, %if.end24
  %opaque31 = getelementptr inbounds nuw i8, ptr %strm, i64 80
  %6 = load ptr, ptr %opaque31, align 8
  %call = tail call ptr %4(ptr noundef %6, i32 noundef 1, i32 noundef 7152) #4
  %cmp32 = icmp eq ptr %call, null
  br i1 %cmp32, label %return, label %if.end35

if.end35:                                         ; preds = %if.end29
  %state36 = getelementptr inbounds nuw i8, ptr %strm, i64 56
  store ptr %call, ptr %state36, align 8
  %dmax = getelementptr inbounds nuw i8, ptr %call, i64 20
  store i32 32768, ptr %dmax, align 4
  %wbits = getelementptr inbounds nuw i8, ptr %call, i64 48
  store i32 %windowBits, ptr %wbits, align 8
  %shl = shl nuw nsw i32 1, %windowBits
  %wsize = getelementptr inbounds nuw i8, ptr %call, i64 52
  store i32 %shl, ptr %wsize, align 4
  %window37 = getelementptr inbounds nuw i8, ptr %call, i64 64
  store ptr %window, ptr %window37, align 8
  %wnext = getelementptr inbounds nuw i8, ptr %call, i64 60
  store i32 0, ptr %wnext, align 4
  %whave = getelementptr inbounds nuw i8, ptr %call, i64 56
  store i32 0, ptr %whave, align 8
  br label %return

return:                                           ; preds = %if.end29, %if.end, %entry, %lor.lhs.false, %if.end35
  %retval.0 = phi i32 [ 0, %if.end35 ], [ -6, %lor.lhs.false ], [ -6, %entry ], [ -2, %if.end ], [ -4, %if.end29 ]
  ret i32 %retval.0
}